target datalayout = "e-m:e-p270:32:32-p271:32:32-p272:64:64-i64:64-i128:128-f80:128-n8:16:32:64-S128"
target triple = "x86_64-pc-linux-gnu"

%struct.QualCost = type { double, double }
%struct.ParamPathInfo = type { i32, ptr, double, ptr, ptr }
%struct.Path = type { i32, i32, ptr, ptr, ptr, i8, i8, i32, double, i32, double, double, ptr }
%struct.RelOptInfo = type { i32, i32, ptr, double, i8, i8, i8, ptr, ptr, ptr, ptr, ptr, ptr, ptr, ptr, ptr, ptr, i32, i32, i32, i16, i16, ptr, ptr, ptr, ptr, ptr, ptr, ptr, ptr, i32, double, double, ptr, ptr, ptr, i32, i32, i32, i32, i8, ptr, ptr, ptr, ptr, ptr, %struct.QualCost, i32, ptr, i8, i8, ptr, ptr, ptr, ptr, i32, ptr, i8, ptr, ptr, ptr, ptr, ptr, ptr }
%struct.GatherPath = type { %struct.Path, ptr, i8, i32 }

@parallel_tuple_cost = dso_local global double 1.000000e-01, align 8
@parallel_setup_cost = dso_local global double 1.000000e+03, align 8

; Function Attrs: nounwind uwtable
define dso_local void @cost_gather(ptr noundef %0, ptr noundef %1, ptr noundef %2, ptr noundef %3, ptr noundef %4) #0 {
  %6 = alloca ptr, align 8
  %7 = alloca ptr, align 8
  %8 = alloca ptr, align 8
  %9 = alloca ptr, align 8
  %10 = alloca ptr, align 8
  %11 = alloca double, align 8
  %12 = alloca double, align 8
  store ptr %0, ptr %6, align 8
  store ptr %1, ptr %7, align 8
  store ptr %2, ptr %8, align 8
  store ptr %3, ptr %9, align 8
  store ptr %4, ptr %10, align 8
  call void @llvm.lifetime.start.p0(i64 8, ptr %11) #9
  store double 0.000000e+00, ptr %11, align 8
  call void @llvm.lifetime.start.p0(i64 8, ptr %12) #9
  store double 0.000000e+00, ptr %12, align 8
  %13 = load ptr, ptr %10, align 8
  %14 = icmp ne ptr %13, null
  br i1 %14, label %15, label %21

15:                                               ; preds = %5
  %16 = load ptr, ptr %10, align 8
  %17 = load double, ptr %16, align 8
  %18 = load ptr, ptr %6, align 8
  %19 = getelementptr inbounds nuw %struct.GatherPath, ptr %18, i32 0, i32 0
  %20 = getelementptr inbounds nuw %struct.Path, ptr %19, i32 0, i32 8
  store double %17, ptr %20, align 8
  br label %39

21:                                               ; preds = %5
  %22 = load ptr, ptr %9, align 8
  %23 = icmp ne ptr %22, null
  br i1 %23, label %24, label %31

24:                                               ; preds = %21
  %25 = load ptr, ptr %9, align 8
  %26 = getelementptr inbounds nuw %struct.ParamPathInfo, ptr %25, i32 0, i32 2
  %27 = load double, ptr %26, align 8
  %28 = load ptr, ptr %6, align 8
  %29 = getelementptr inbounds nuw %struct.GatherPath, ptr %28, i32 0, i32 0
  %30 = getelementptr inbounds nuw %struct.Path, ptr %29, i32 0, i32 8
  store double %27, ptr %30, align 8
  br label %38

31:                                               ; preds = %21
  %32 = load ptr, ptr %8, align 8
  %33 = getelementptr inbounds nuw %struct.RelOptInfo, ptr %32, i32 0, i32 3
  %34 = load double, ptr %33, align 8
  %35 = load ptr, ptr %6, align 8
  %36 = getelementptr inbounds nuw %struct.GatherPath, ptr %35, i32 0, i32 0
  %37 = getelementptr inbounds nuw %struct.Path, ptr %36, i32 0, i32 8
  store double %34, ptr %37, align 8
  br label %38

38:                                               ; preds = %31, %24
  br label %39

39:                                               ; preds = %38, %15
  %40 = load ptr, ptr %6, align 8
  %41 = getelementptr inbounds nuw %struct.GatherPath, ptr %40, i32 0, i32 1
  %42 = load ptr, ptr %41, align 8
  %43 = getelementptr inbounds nuw %struct.Path, ptr %42, i32 0, i32 10
  %44 = load double, ptr %43, align 8
  store double %44, ptr %11, align 8
  %45 = load ptr, ptr %6, align 8
  %46 = getelementptr inbounds nuw %struct.GatherPath, ptr %45, i32 0, i32 1
  %47 = load ptr, ptr %46, align 8
  %48 = getelementptr inbounds nuw %struct.Path, ptr %47, i32 0, i32 11
  %49 = load double, ptr %48, align 8
  %50 = load ptr, ptr %6, align 8
  %51 = getelementptr inbounds nuw %struct.GatherPath, ptr %50, i32 0, i32 1
  %52 = load ptr, ptr %51, align 8
  %53 = getelementptr inbounds nuw %struct.Path, ptr %52, i32 0, i32 10
  %54 = load double, ptr %53, align 8
  %55 = fsub double %49, %54
  store double %55, ptr %12, align 8
  %56 = load double, ptr @parallel_setup_cost, align 8
  %57 = load double, ptr %11, align 8
  %58 = fadd double %57, %56
  store double %58, ptr %11, align 8
  %59 = load double, ptr @parallel_tuple_cost, align 8
  %60 = load ptr, ptr %6, align 8
  %61 = getelementptr inbounds nuw %struct.GatherPath, ptr %60, i32 0, i32 0
  %62 = getelementptr inbounds nuw %struct.Path, ptr %61, i32 0, i32 8
  %63 = load double, ptr %62, align 8
  %64 = load double, ptr %12, align 8
  %65 = call double @llvm.fmuladd.f64(double %59, double %63, double %64)
  store double %65, ptr %12, align 8
  %66 = load ptr, ptr %6, align 8
  %67 = getelementptr inbounds nuw %struct.GatherPath, ptr %66, i32 0, i32 1
  %68 = load ptr, ptr %67, align 8
  %69 = getelementptr inbounds nuw %struct.Path, ptr %68, i32 0, i32 9
  %70 = load i32, ptr %69, align 8
  %71 = load ptr, ptr %6, align 8
  %72 = getelementptr inbounds nuw %struct.GatherPath, ptr %71, i32 0, i32 0
  %73 = getelementptr inbounds nuw %struct.Path, ptr %72, i32 0, i32 9
  store i32 %70, ptr %73, align 8
  %74 = load double, ptr %11, align 8
  %75 = load ptr, ptr %6, align 8
  %76 = getelementptr inbounds nuw %struct.GatherPath, ptr %75, i32 0, i32 0
  %77 = getelementptr inbounds nuw %struct.Path, ptr %76, i32 0, i32 10
  store double %74, ptr %77, align 8
  %78 = load double, ptr %11, align 8
  %79 = load double, ptr %12, align 8
  %80 = fadd double %78, %79
  %81 = load ptr, ptr %6, align 8
  %82 = getelementptr inbounds nuw %struct.GatherPath, ptr %81, i32 0, i32 0
  %83 = getelementptr inbounds nuw %struct.Path, ptr %82, i32 0, i32 11
  store double %80, ptr %83, align 8
  call void @llvm.lifetime.end.p0(i64 8, ptr %12) #9
  call void @llvm.lifetime.end.p0(i64 8, ptr %11) #9
  ret void
}