; Function Attrs: mustprogress nofree norecurse nosync nounwind willreturn memory(read, argmem: readwrite, inaccessiblemem: none) uwtable
define dso_local void @cost_gather(ptr noundef captures(none) initializes((40, 52), (56, 72)) %0, ptr noundef readnone captures(none) %1, ptr noundef readonly captures(none) %2, ptr noundef readonly captures(address_is_null) %3, ptr noundef readonly captures(address_is_null) %4) local_unnamed_addr #5 {
  %.not = icmp eq ptr %4, null
  br i1 %.not, label %6, label %11

6:                                                ; preds = %5
  %.not22 = icmp eq ptr %3, null
  br i1 %.not22, label %9, label %7

7:                                                ; preds = %6
  %8 = getelementptr inbounds nuw i8, ptr %3, i64 16
  br label %11

9:                                                ; preds = %6
  %10 = getelementptr inbounds nuw i8, ptr %2, i64 16
  br label %11

11:                                               ; preds = %5, %7, %9
  %.sink.in = phi ptr [ %8, %7 ], [ %10, %9 ], [ %4, %5 ]
  %.sink = load double, ptr %.sink.in, align 8
  %12 = getelementptr inbounds nuw i8, ptr %0, i64 40
  store double %.sink, ptr %12, align 8
  %13 = getelementptr inbounds nuw i8, ptr %0, i64 80
  %14 = load ptr, ptr %13, align 8
  %15 = getelementptr inbounds nuw i8, ptr %14, i64 56
  %16 = load double, ptr %15, align 8
  %17 = getelementptr inbounds nuw i8, ptr %14, i64 64
  %18 = load double, ptr %17, align 8
  %19 = fsub double %18, %16
  %20 = load double, ptr @parallel_setup_cost, align 8
  %21 = fadd double %16, %20
  %22 = load double, ptr @parallel_tuple_cost, align 8
  %23 = tail call double @llvm.fmuladd.f64(double %22, double %.sink, double %19)
  %24 = getelementptr inbounds nuw i8, ptr %14, i64 48
  %25 = load i32, ptr %24, align 8
  %26 = getelementptr inbounds nuw i8, ptr %0, i64 48
  store i32 %25, ptr %26, align 8
  %27 = getelementptr inbounds nuw i8, ptr %0, i64 56
  store double %21, ptr %27, align 8
  %28 = fadd double %21, %23
  %29 = getelementptr inbounds nuw i8, ptr %0, i64 64
  store double %28, ptr %29, align 8
  ret void
}